target datalayout = "e-m:e-p270:32:32-p271:32:32-p272:64:64-i64:64-i128:128-f80:128-n8:16:32:64-S128"
target triple = "x86_64-pc-linux-gnu"

%struct.jit_State = type { %struct.GCtrace, ptr, ptr, ptr, ptr, ptr, ptr, i32, i32, i32, i8, i8, %struct.IRType1, i8, %struct.FoldState, ptr, i32, i32, i32, i32, i32, i32, i32, [1 x i32], [5 x %union.TValue], [3 x %union.TValue], ptr, i32, i32, i32, i32, ptr, ptr, i32, i32, i8, ptr, i32, i32, i16, [101 x i16], [258 x i32], [15 x i32], [16 x ptr], [64 x %struct.HotPenalty], i32, [16 x %struct.BPropEntry], i32, %struct.ScEvEntry, ptr, i32, i32, i32, ptr, i32, i32, ptr, ptr, ptr, i64, i64, %union.TValue, ptr, i32, i32 }
%struct.GCtrace = type { %struct.GCRef, i8, i8, i16, i32, i32, %struct.GCRef, ptr, i32, i32, ptr, ptr, %struct.GCRef, %struct.MRef, i32, i32, ptr, i32, i16, i16, i16, i16, i16, i16, i16, i8, i8, i8, i8 }
%struct.GCRef = type { i64 }
%struct.MRef = type { i64 }
%struct.IRType1 = type { i8 }
%struct.FoldState = type { %union.IRIns, [2 x %union.IRIns], [2 x %union.IRIns] }
%union.IRIns = type { %struct.GCRef }
%struct.HotPenalty = type { %struct.MRef, i16, i16 }
%struct.BPropEntry = type { i16, i16, i32 }
%struct.ScEvEntry = type { %struct.MRef, i16, i16, i16, i16, %struct.IRType1, i8 }
%union.TValue = type { i64 }

; Function Attrs: nounwind uwtable
define internal i32 @numisint(double noundef %0) #0 {
  %2 = alloca double, align 8
  store double %0, ptr %2, align 8, !tbaa !41
  %3 = load double, ptr %2, align 8, !tbaa !41
  %4 = load double, ptr %2, align 8, !tbaa !41
  %5 = fptosi double %4 to i32
  %6 = sitofp i32 %5 to double
  %7 = fcmp oeq double %3, %6
  %8 = zext i1 %7 to i32
  ret i32 %8
}

; Function Attrs: alwaysinline nounwind uwtable
define internal double @numberVnum(ptr noundef %0) #2 {
  %2 = alloca ptr, align 8
  store ptr %0, ptr %2, align 8, !tbaa !53
  %3 = load ptr, ptr %2, align 8, !tbaa !53
  %4 = load double, ptr %3, align 8, !tbaa !33
  ret double %4
}

; Function Attrs: nounwind uwtable
define internal i32 @narrow_forl(ptr noundef %0, ptr noundef %1) #0 {
  %3 = alloca i32, align 4
  %4 = alloca ptr, align 8
  %5 = alloca ptr, align 8
  store ptr %0, ptr %4, align 8, !tbaa !4
  store ptr %1, ptr %5, align 8, !tbaa !53
  %6 = load ptr, ptr %4, align 8, !tbaa !4
  %7 = getelementptr inbounds nuw %struct.jit_State, ptr %6, i32 0, i32 7
  %8 = load i32, ptr %7, align 8, !tbaa !9
  %9 = and i32 %8, 2097152
  %10 = icmp ne i32 %9, 0
  br i1 %10, label %11, label %15

11:                                               ; preds = %2
  %12 = load ptr, ptr %5, align 8, !tbaa !53
  %13 = load double, ptr %12, align 8, !tbaa !33
  %14 = call i32 @numisint(double noundef %13)
  store i32 %14, ptr %3, align 4
  br label %16

15:                                               ; preds = %2
  store i32 0, ptr %3, align 4
  br label %16

16:                                               ; preds = %15, %11
  %17 = load i32, ptr %3, align 4
  ret i32 %17
}

; Function Attrs: nounwind uwtable
define hidden i32 @lj_opt_narrow_forl(ptr noundef %0, ptr noundef %1) #0 {
  %3 = alloca i32, align 4
  %4 = alloca ptr, align 8
  %5 = alloca ptr, align 8
  %6 = alloca double, align 8
  %7 = alloca double, align 8
  %8 = alloca i32, align 4
  store ptr %0, ptr %4, align 8, !tbaa !4
  store ptr %1, ptr %5, align 8, !tbaa !53
  %9 = load ptr, ptr %4, align 8, !tbaa !4
  %10 = load ptr, ptr %5, align 8, !tbaa !53
  %11 = getelementptr inbounds %union.TValue, ptr %10, i64 0
  %12 = call i32 @narrow_forl(ptr noundef %9, ptr noundef %11)
  %13 = icmp ne i32 %12, 0
  br i1 %13, label %14, label %48

14:                                               ; preds = %2
  %15 = load ptr, ptr %4, align 8, !tbaa !4
  %16 = load ptr, ptr %5, align 8, !tbaa !53
  %17 = getelementptr inbounds %union.TValue, ptr %16, i64 1
  %18 = call i32 @narrow_forl(ptr noundef %15, ptr noundef %17)
  %19 = icmp ne i32 %18, 0
  br i1 %19, label %20, label %48

20:                                               ; preds = %14
  %21 = load ptr, ptr %4, align 8, !tbaa !4
  %22 = load ptr, ptr %5, align 8, !tbaa !53
  %23 = getelementptr inbounds %union.TValue, ptr %22, i64 2
  %24 = call i32 @narrow_forl(ptr noundef %21, ptr noundef %23)
  %25 = icmp ne i32 %24, 0
  br i1 %25, label %26, label %48

26:                                               ; preds = %20
  call void @llvm.lifetime.start.p0(i64 8, ptr %6) #5
  %27 = load ptr, ptr %5, align 8, !tbaa !53
  %28 = getelementptr inbounds %union.TValue, ptr %27, i64 2
  %29 = call double @numberVnum(ptr noundef %28)
  store double %29, ptr %6, align 8, !tbaa !41
  call void @llvm.lifetime.start.p0(i64 8, ptr %7) #5
  %30 = load ptr, ptr %5, align 8, !tbaa !53
  %31 = getelementptr inbounds %union.TValue, ptr %30, i64 1
  %32 = call double @numberVnum(ptr noundef %31)
  %33 = load double, ptr %6, align 8, !tbaa !41
  %34 = fadd double %32, %33
  store double %34, ptr %7, align 8, !tbaa !41
  %35 = load double, ptr %6, align 8, !tbaa !41
  %36 = fcmp ole double 0.000000e+00, %35
  br i1 %36, label %37, label %40

37:                                               ; preds = %26
  %38 = load double, ptr %7, align 8, !tbaa !41
  %39 = fcmp ole double %38, 0x41DFFFFFFFC00000
  br i1 %39, label %43, label %44

40:                                               ; preds = %26
  %41 = load double, ptr %7, align 8, !tbaa !41
  %42 = fcmp oge double %41, 0xC1E0000000000000
  br i1 %42, label %43, label %44

43:                                               ; preds = %40, %37
  store i32 19, ptr %3, align 4
  store i32 1, ptr %8, align 4
  br label %45

44:                                               ; preds = %40, %37
  store i32 0, ptr %8, align 4
  br label %45

45:                                               ; preds = %44, %43
  call void @llvm.lifetime.end.p0(i64 8, ptr %7) #5
  call void @llvm.lifetime.end.p0(i64 8, ptr %6) #5
  %46 = load i32, ptr %8, align 4
  switch i32 %46, label %51 [
    i32 0, label %47
    i32 1, label %49
  ]

47:                                               ; preds = %45
  br label %48

48:                                               ; preds = %47, %20, %14, %2
  store i32 14, ptr %3, align 4
  br label %49

49:                                               ; preds = %48, %45
  %50 = load i32, ptr %3, align 4
  ret i32 %50

51:                                               ; preds = %45
  unreachable
}