; Function Attrs: mustprogress nofree norecurse nosync nounwind willreturn memory(argmem: read) uwtable
define hidden range(i32 14, 20) i32 @lj_opt_narrow_forl(ptr noundef readonly captures(none) %0, ptr noundef readonly captures(none) %1) local_unnamed_addr #5 {
  %3 = getelementptr i8, ptr %0, i64 168
  %.val = load i32, ptr %3, align 8, !tbaa !4
  %4 = and i32 %.val, 2097152
  %.not.i = icmp eq i32 %4, 0
  br i1 %.not.i, label %narrow_forl.exit.thread, label %narrow_forl.exit

narrow_forl.exit:                                 ; preds = %2
  %5 = load double, ptr %1, align 8, !tbaa !32
  %6 = fptosi double %5 to i32
  %7 = sitofp i32 %6 to double
  %8 = fcmp une double %5, %7
  br i1 %8, label %narrow_forl.exit.thread, label %narrow_forl.exit20

narrow_forl.exit20:                               ; preds = %narrow_forl.exit
  %9 = getelementptr inbounds nuw i8, ptr %1, i64 8
  %10 = load double, ptr %9, align 8, !tbaa !32
  %11 = fptosi double %10 to i32
  %12 = sitofp i32 %11 to double
  %13 = fcmp une double %10, %12
  br i1 %13, label %narrow_forl.exit.thread, label %narrow_forl.exit23

narrow_forl.exit23:                               ; preds = %narrow_forl.exit20
  %14 = getelementptr inbounds nuw i8, ptr %1, i64 16
  %15 = load double, ptr %14, align 8, !tbaa !32
  %16 = fptosi double %15 to i32
  %17 = sitofp i32 %16 to double
  %18 = fcmp une double %15, %17
  br i1 %18, label %narrow_forl.exit.thread, label %19

19:                                               ; preds = %narrow_forl.exit23
  %20 = fadd double %15, %10
  %21 = fcmp ult double %15, 0.000000e+00
  br i1 %21, label %24, label %22

22:                                               ; preds = %19
  %23 = fcmp ugt double %20, 0x41DFFFFFFFC00000
  br i1 %23, label %narrow_forl.exit.thread, label %.thread

24:                                               ; preds = %19
  %25 = fcmp ult double %20, 0xC1E0000000000000
  br i1 %25, label %narrow_forl.exit.thread, label %.thread

.thread:                                          ; preds = %24, %22
  br label %narrow_forl.exit.thread

narrow_forl.exit.thread:                          ; preds = %2, %narrow_forl.exit, %narrow_forl.exit20, %narrow_forl.exit23, %22, %24, %.thread
  %.1 = phi i32 [ 19, %.thread ], [ 14, %24 ], [ 14, %22 ], [ 14, %narrow_forl.exit23 ], [ 14, %narrow_forl.exit20 ], [ 14, %narrow_forl.exit ], [ 14, %2 ]
  ret i32 %.1
}